Certificate:
    Data:
        Version: 3 (0x2)
        Serial Number:
            5c:1c:74:e4:e0:50:26:de:a1:e4:c6:ec:d8:c3:30:c4
        Signature Algorithm: sha256WithRSAEncryption
        Issuer: CN=Easy-RSA CA
        Validity
            Not Before: Oct 12 08:41:32 2022 GMT
            Not After : Jan 14 08:41:32 2025 GMT
        Subject: CN=client1
        Subject Public Key Info:
            Public Key Algorithm: rsaEncryption
                RSA Public-Key: (2048 bit)
                Modulus:
                    00:b4:0e:14:48:37:20:1f:b4:be:9d:b7:96:3e:85:
                    c9:7d:7e:f6:f7:41:cd:83:30:26:e0:87:fd:69:27:
                    8a:79:f6:cb:1d:11:1c:28:6a:be:3c:7d:f4:21:02:
                    b2:0b:9e:d5:27:84:7d:6c:91:ea:cd:6e:20:23:ec:
                    c8:bd:4d:09:5d:76:52:fa:f7:dd:97:35:0c:0c:1a:
                    d2:8c:92:75:73:c6:a5:a9:d0:64:fb:47:a4:af:d4:
                    dc:36:8a:ef:2d:bd:79:a4:44:a8:20:04:b4:48:30:
                    e5:f2:74:94:ff:c9:cb:1c:8f:47:0e:71:05:db:5a:
                    72:37:5c:79:31:8d:7c:35:f2:7e:c4:c0:ab:0b:c6:
                    0b:b0:3c:74:2b:2c:1c:79:de:ba:a4:00:93:e5:72:
                    87:e6:60:35:65:74:81:a0:1e:e9:e6:b7:9b:eb:18:
                    87:9b:3a:8f:14:b2:3d:05:58:79:9d:92:39:aa:c0:
                    f7:37:06:0c:72:1a:a8:bf:36:1a:be:87:4c:a0:bc:
                    7c:53:07:d9:49:5e:e2:12:a7:70:01:8d:a6:d2:d1:
                    57:f8:ea:dd:c1:29:6a:12:57:08:41:03:7e:2a:ca:
                    d1:12:55:22:34:9c:c7:b1:d3:1a:57:7f:fc:38:92:
                    4e:f7:9d:7f:f2:14:ba:c5:62:0b:50:f5:85:4e:ae:
                    f7:61
                Exponent: 65537 (0x10001)
        X509v3 extensions:
            X509v3 Basic Constraints: 
                CA:FALSE
            X509v3 Subject Key Identifier: 
                3E:DF:6A:95:E4:E8:EC:DB:33:B1:7F:80:55:02:03:CF:7C:07:C1:F1
            X509v3 Authority Key Identifier: 
                keyid:F5:88:0E:F1:A6:E2:1E:50:EF:48:10:A5:CD:1A:16:3F:FE:CC:3B:1B
                DirName:/CN=Easy-RSA CA
                serial:11:E5:F8:48:B1:0B:A5:77:D7:AA:5E:94:DF:24:0F:93:38:B9:29:70

            X509v3 Extended Key Usage: 
                TLS Web Client Authentication
            X509v3 Key Usage: 
                Digital Signature
    Signature Algorithm: sha256WithRSAEncryption
         83:46:bc:f7:95:a6:cf:2d:61:d4:29:3b:56:0c:bb:8b:9d:05:
         7e:ec:78:30:4f:d8:34:38:70:c5:28:86:43:8e:35:e9:82:21:
         14:e3:89:5d:d5:cc:87:55:40:7c:91:82:26:54:93:d7:de:2b:
         cc:0f:13:5f:e7:e3:b7:26:14:be:d4:45:42:25:65:e5:37:91:
         36:7d:78:0f:ce:ed:52:8d:38:60:58:b7:10:8f:20:bf:8e:d0:
         74:83:94:f5:88:3b:8d:88:01:fd:b9:1c:0e:5d:2e:6d:6e:c6:
         e8:74:c4:34:6f:12:f9:54:4b:21:53:43:0a:34:62:9c:58:87:
         e8:19:1a:21:c6:d8:74:e5:3d:58:40:79:b3:e1:c1:89:16:a8:
         fb:2c:ef:b0:4c:ed:eb:4c:be:cf:4f:0b:7d:09:3c:32:75:82:
         11:e9:57:f1:c5:c6:ef:74:8f:bb:e4:de:15:8f:1a:27:45:55:
         69:74:b9:fe:52:06:f2:af:38:48:a8:33:17:0a:c6:72:af:b9:
         43:d8:db:77:5c:00:57:4f:cf:20:3a:86:77:c5:52:ea:6b:47:
         30:d1:3a:27:29:9a:a2:2d:9c:cf:0d:4d:6c:eb:b5:bd:47:0c:
         ef:13:71:f2:7e:4e:13:b5:6f:fd:16:7a:6e:75:ba:42:72:71:
         59:ce:df:9e
-----BEGIN CERTIFICATE-----
MIIDVTCCAj2gAwIBAgIQXBx05OBQJt6h5Mbs2MMwxDANBgkqhkiG9w0BAQsFADAW
MRQwEgYDVQQDDAtFYXN5LVJTQSBDQTAeFw0yMjEwMTIwODQxMzJaFw0yNTAxMTQw
ODQxMzJaMBIxEDAOBgNVBAMMB2NsaWVudDEwggEiMA0GCSqGSIb3DQEBAQUAA4IB
DwAwggEKAoIBAQC0DhRINyAftL6dt5Y+hcl9fvb3Qc2DMCbgh/1pJ4p59ssdERwo
ar48ffQhArILntUnhH1skerNbiAj7Mi9TQlddlL6992XNQwMGtKMknVzxqWp0GT7
R6Sv1Nw2iu8tvXmkRKggBLRIMOXydJT/ycscj0cOcQXbWnI3XHkxjXw18n7EwKsL
xguwPHQrLBx53rqkAJPlcofmYDVldIGgHunmt5vrGIebOo8Usj0FWHmdkjmqwPc3
BgxyGqi/Nhq+h0ygvHxTB9lJXuISp3ABjabS0Vf46t3BKWoSVwhBA34qytESVSI0
nMex0xpXf/w4kk73nX/yFLrFYgtQ9YVOrvdhAgMBAAGjgaIwgZ8wCQYDVR0TBAIw
ADAdBgNVHQ4EFgQUPt9qleTo7NszsX+AVQIDz3wHwfEwUQYDVR0jBEowSIAU9YgO
8abiHlDvSBClzRoWP/7MOxuhGqQYMBYxFDASBgNVBAMMC0Vhc3ktUlNBIENBghQR
5fhIsQuld9eqXpTfJA+TOLkpcDATBgNVHSUEDDAKBggrBgEFBQcDAjALBgNVHQ8E
BAMCB4AwDQYJKoZIhvcNAQELBQADggEBAINGvPeVps8tYdQpO1YMu4udBX7seDBP
2DQ4cMUohkOONemCIRTjiV3VzIdVQHyRgiZUk9feK8wPE1/n47cmFL7URUIlZeU3
kTZ9eA/O7VKNOGBYtxCPIL+O0HSDlPWIO42IAf25HA5dLm1uxuh0xDRvEvlUSyFT
Qwo0YpxYh+gZGiHG2HTlPVhAebPhwYkWqPss77BM7etMvs9PC30JPDJ1ghHpV/HF
xu90j7vk3hWPGidFVWl0uf5SBvKvOEioMxcKxnKvuUPY23dcAFdPzyA6hnfFUupr
RzDROicpmqItnM8NTWzrtb1HDO8TcfJ+ThO1b/0Wem51ukJycVnO354=
-----END CERTIFICATE-----
